; ModuleID = '7/943.c'
source_filename = "7/943.c"
target datalayout = "e-m:e-p270:32:32-p271:32:32-p272:64:64-i64:64-f80:128-n8:16:32:64-S128"
target triple = "x86_64-pc-linux-gnu"

@.str = private unnamed_addr constant [4 x i8] c"%s\0A\00", align 1

; Function Attrs: noinline nounwind uwtable
define dso_local i32 @main() #0 {
  %1 = alloca i32, align 4
  %2 = alloca [514 x i8], align 16
  %3 = alloca [514 x i8], align 16
  %4 = alloca [514 x i8], align 16
  %5 = alloca [256 x i8], align 16
  %6 = alloca i32, align 4
  %7 = alloca i32, align 4
  %8 = alloca i32, align 4
  %9 = alloca i32, align 4
  %10 = alloca i32, align 4
  %11 = alloca i32, align 4
  %12 = alloca i32, align 4
  %13 = alloca i32, align 4
  %14 = alloca i32, align 4
  %15 = alloca i32, align 4
  %16 = alloca i32, align 4
  %17 = alloca i32, align 4
  store i32 0, i32* %1, align 4
  %18 = getelementptr inbounds [514 x i8], [514 x i8]* %2, i64 0, i64 0
  %19 = call i32 (i8*, ...) bitcast (i32 (...)* @gets to i32 (i8*, ...)*)(i8* %18)
  %20 = getelementptr inbounds [514 x i8], [514 x i8]* %3, i64 0, i64 0
  %21 = call i32 (i8*, ...) bitcast (i32 (...)* @gets to i32 (i8*, ...)*)(i8* %20)
  %22 = getelementptr inbounds [514 x i8], [514 x i8]* %4, i64 0, i64 0
  %23 = call i32 (i8*, ...) bitcast (i32 (...)* @gets to i32 (i8*, ...)*)(i8* %22)
  %24 = getelementptr inbounds [514 x i8], [514 x i8]* %2, i64 0, i64 0
  %25 = call i64 @strlen(i8* %24) #4
  %26 = trunc i64 %25 to i32
  store i32 %26, i32* %9, align 4
  %27 = getelementptr inbounds [514 x i8], [514 x i8]* %3, i64 0, i64 0
  %28 = call i64 @strlen(i8* %27) #4
  %29 = trunc i64 %28 to i32
  store i32 %29, i32* %10, align 4
  store i32 0, i32* %6, align 4
  br label %30

30:                                               ; preds = %84, %0
  %31 = load i32, i32* %6, align 4
  %32 = load i32, i32* %9, align 4
  %33 = load i32, i32* %10, align 4
  %34 = sub nsw i32 %32, %33
  %35 = add nsw i32 %34, 1
  %36 = icmp slt i32 %31, %35
  br i1 %36, label %37, label %87

37:                                               ; preds = %30
  %38 = load i32, i32* %6, align 4
  %39 = sext i32 %38 to i64
  %40 = getelementptr inbounds [514 x i8], [514 x i8]* %2, i64 0, i64 %39
  %41 = load i8, i8* %40, align 1
  %42 = sext i8 %41 to i32
  %43 = getelementptr inbounds [514 x i8], [514 x i8]* %3, i64 0, i64 0
  %44 = load i8, i8* %43, align 16
  %45 = sext i8 %44 to i32
  %46 = icmp eq i32 %42, %45
  br i1 %46, label %47, label %83

47:                                               ; preds = %37
  store i32 0, i32* %8, align 4
  %48 = load i32, i32* %6, align 4
  store i32 %48, i32* %7, align 4
  store i32 0, i32* %12, align 4
  br label %49

49:                                               ; preds = %69, %47
  %50 = load i32, i32* %7, align 4
  %51 = load i32, i32* %6, align 4
  %52 = load i32, i32* %10, align 4
  %53 = add nsw i32 %51, %52
  %54 = icmp slt i32 %50, %53
  br i1 %54, label %55, label %74

55:                                               ; preds = %49
  %56 = load i32, i32* %7, align 4
  %57 = sext i32 %56 to i64
  %58 = getelementptr inbounds [514 x i8], [514 x i8]* %2, i64 0, i64 %57
  %59 = load i8, i8* %58, align 1
  %60 = sext i8 %59 to i32
  %61 = load i32, i32* %12, align 4
  %62 = sext i32 %61 to i64
  %63 = getelementptr inbounds [514 x i8], [514 x i8]* %3, i64 0, i64 %62
  %64 = load i8, i8* %63, align 1
  %65 = sext i8 %64 to i32
  %66 = icmp ne i32 %60, %65
  br i1 %66, label %67, label %68

67:                                               ; preds = %55
  store i32 1, i32* %8, align 4
  br label %74

68:                                               ; preds = %55
  br label %69

69:                                               ; preds = %68
  %70 = load i32, i32* %7, align 4
  %71 = add nsw i32 %70, 1
  store i32 %71, i32* %7, align 4
  %72 = load i32, i32* %12, align 4
  %73 = add nsw i32 %72, 1
  store i32 %73, i32* %12, align 4
  br label %49

74:                                               ; preds = %67, %49
  %75 = load i32, i32* %8, align 4
  %76 = icmp eq i32 %75, 0
  br i1 %76, label %77, label %82

77:                                               ; preds = %74
  %78 = load i32, i32* %6, align 4
  store i32 %78, i32* %13, align 4
  %79 = load i32, i32* %6, align 4
  %80 = load i32, i32* %10, align 4
  %81 = add nsw i32 %79, %80
  store i32 %81, i32* %14, align 4
  br label %87

82:                                               ; preds = %74
  br label %83

83:                                               ; preds = %82, %37
  br label %84

84:                                               ; preds = %83
  %85 = load i32, i32* %6, align 4
  %86 = add nsw i32 %85, 1
  store i32 %86, i32* %6, align 4
  br label %30

87:                                               ; preds = %77, %30
  %88 = load i32, i32* %8, align 4
  %89 = icmp eq i32 %88, 0
  br i1 %89, label %90, label %124

90:                                               ; preds = %87
  %91 = load i32, i32* %14, align 4
  store i32 %91, i32* %6, align 4
  store i32 0, i32* %7, align 4
  br label %92

92:                                               ; preds = %104, %90
  %93 = load i32, i32* %6, align 4
  %94 = load i32, i32* %9, align 4
  %95 = icmp slt i32 %93, %94
  br i1 %95, label %96, label %109

96:                                               ; preds = %92
  %97 = load i32, i32* %6, align 4
  %98 = sext i32 %97 to i64
  %99 = getelementptr inbounds [514 x i8], [514 x i8]* %2, i64 0, i64 %98
  %100 = load i8, i8* %99, align 1
  %101 = load i32, i32* %7, align 4
  %102 = sext i32 %101 to i64
  %103 = getelementptr inbounds [256 x i8], [256 x i8]* %5, i64 0, i64 %102
  store i8 %100, i8* %103, align 1
  br label %104

104:                                              ; preds = %96
  %105 = load i32, i32* %6, align 4
  %106 = add nsw i32 %105, 1
  store i32 %106, i32* %6, align 4
  %107 = load i32, i32* %7, align 4
  %108 = add nsw i32 %107, 1
  store i32 %108, i32* %7, align 4
  br label %92

109:                                              ; preds = %92
  %110 = load i32, i32* %7, align 4
  %111 = sext i32 %110 to i64
  %112 = getelementptr inbounds [256 x i8], [256 x i8]* %5, i64 0, i64 %111
  store i8 0, i8* %112, align 1
  %113 = getelementptr inbounds [514 x i8], [514 x i8]* %4, i64 0, i64 0
  %114 = getelementptr inbounds [256 x i8], [256 x i8]* %5, i64 0, i64 0
  %115 = call i8* @strcat(i8* %113, i8* %114) #5
  %116 = load i32, i32* %13, align 4
  %117 = sext i32 %116 to i64
  %118 = getelementptr inbounds [514 x i8], [514 x i8]* %2, i64 0, i64 %117
  store i8 0, i8* %118, align 1
  %119 = getelementptr inbounds [514 x i8], [514 x i8]* %2, i64 0, i64 0
  %120 = getelementptr inbounds [514 x i8], [514 x i8]* %4, i64 0, i64 0
  %121 = call i8* @strcat(i8* %119, i8* %120) #5
  %122 = getelementptr inbounds [514 x i8], [514 x i8]* %2, i64 0, i64 0
  %123 = call i32 (i8*, ...) @printf(i8* getelementptr inbounds ([4 x i8], [4 x i8]* @.str, i64 0, i64 0), i8* %122)
  br label %127

124:                                              ; preds = %87
  %125 = getelementptr inbounds [514 x i8], [514 x i8]* %2, i64 0, i64 0
  %126 = call i32 (i8*, ...) @printf(i8* getelementptr inbounds ([4 x i8], [4 x i8]* @.str, i64 0, i64 0), i8* %125)
  br label %127

127:                                              ; preds = %124, %109
  ret i32 0
}

declare dso_local i32 @gets(...) #1

; Function Attrs: nounwind readonly
declare dso_local i64 @strlen(i8*) #2

; Function Attrs: nounwind
declare dso_local i8* @strcat(i8*, i8*) #3

declare dso_local i32 @printf(i8*, ...) #1


!llvm.module.flags = !{!0}
!llvm.ident = !{!1}

!0 = !{i32 1, !"wchar_size", i32 4}
!1 = !{!"clang version 10.0.0-4ubuntu1 "}
